target datalayout = "e-m:e-p270:32:32-p271:32:32-p272:64:64-i64:64-i128:128-f80:128-n8:16:32:64-S128"
target triple = "x86_64-pc-linux-gnu"

%struct.H5HF_t = type { ptr, ptr }
%struct.H5HF_hdr_t = type { %struct.H5C_cache_entry_t, i32, i32, i8, i8, i8, i8, %struct.H5HF_dtable_t, i64, i64, i32, i64, i64, %struct.H5O_pline_t, i64, i32, i64, i64, i64, i64, i64, i64, i64, i64, i64, i64, i64, i32, ptr, i64, i8, i8, i8, ptr, i32, ptr, %struct.H5HF_block_iter_t, ptr, i64, i8, i8, i64, i8, i8, i8, i8 }
%struct.H5C_cache_entry_t = type { ptr, i64, i64, ptr, i8, ptr, i8, i8, i8, i8, i32, i8, i8, i8, i8, i8, i32, ptr, i32, i32, i32, i32, i32, i8, i8, ptr, ptr, ptr, ptr, ptr, ptr, i8, i32, i8, i64, ptr, i64, i64, i32, i8, i32, i32, i8, ptr, ptr, ptr }
%struct.H5HF_dtable_t = type { %struct.H5HF_dtable_cparam_t, i64, i32, i32, i32, i32, i32, i32, i32, i64, ptr, ptr, ptr, ptr }
%struct.H5HF_dtable_cparam_t = type { i32, i64, i64, i32, i32 }
%struct.H5O_pline_t = type { %struct.H5O_shared_t, i32, i64, i64, ptr }
%struct.H5O_shared_t = type { i32, ptr, i32, %union.anon }
%union.anon = type { %struct.H5O_mesg_loc_t }
%struct.H5O_mesg_loc_t = type { i32, i64 }
%struct.H5HF_block_iter_t = type { i8, ptr }

@H5HF_init_g = global i8 0, align 1
@H5_libterm_g = external global i8, align 1
@.str = private unnamed_addr constant [98 x i8] c"generated/home/dtcxzyw/WorkSpace/Projects/compilers/llvm-opt-benchmark/bench/hdf5/hdf5/src/H5HF.c\00", align 1
@H5E_HEAP_g = external global i64, align 8
@H5E_UNSUPPORTED_g = external global i64, align 8
@H5E_VERSION_g = external global i64, align 8
@.str.14 = private unnamed_addr constant [26 x i8] c"incorrect heap ID version\00", align 1
@stderr = external global ptr, align 8
@.str.18 = private unnamed_addr constant [37 x i8] c"%s: Heap ID type not supported yet!\0A\00", align 1
@.str.19 = private unnamed_addr constant [31 x i8] c"heap ID type not supported yet\00", align 1
@__func__.H5HF_op = private unnamed_addr constant [8 x i8] c"H5HF_op\00", align 1
@H5E_CANTOPERATE_g = external global i64, align 8
@.str.27 = private unnamed_addr constant [42 x i8] c"can't operate on object from fractal heap\00", align 1
@.str.28 = private unnamed_addr constant [49 x i8] c"can't operate on 'huge' object from fractal heap\00", align 1
@.str.29 = private unnamed_addr constant [49 x i8] c"can't operate on 'tiny' object from fractal heap\00", align 1

; Function Attrs: nounwind uwtable
define i32 @H5HF_op(ptr noundef %0, ptr noundef %1, ptr noundef %2, ptr noundef %3) #0 {
  %5 = alloca ptr, align 8
  %6 = alloca ptr, align 8
  %7 = alloca ptr, align 8
  %8 = alloca ptr, align 8
  %9 = alloca ptr, align 8
  %10 = alloca i8, align 1
  %11 = alloca i32, align 4
  %12 = alloca i8, align 1
  store ptr %0, ptr %5, align 8, !tbaa !17
  store ptr %1, ptr %6, align 8, !tbaa !3
  store ptr %2, ptr %7, align 8, !tbaa !3
  store ptr %3, ptr %8, align 8, !tbaa !3
  call void @llvm.lifetime.start.p0(i64 8, ptr %9) #6
  %13 = load ptr, ptr %6, align 8, !tbaa !3
  store ptr %13, ptr %9, align 8, !tbaa !52
  call void @llvm.lifetime.start.p0(i64 1, ptr %10) #6
  call void @llvm.lifetime.start.p0(i64 4, ptr %11) #6
  store i32 0, ptr %11, align 4, !tbaa !24
  call void @llvm.lifetime.start.p0(i64 1, ptr %12) #6
  store i8 0, ptr %12, align 1, !tbaa !9
  %14 = load i8, ptr @H5HF_init_g, align 1, !tbaa !9, !range !11, !noundef !12
  %15 = trunc i8 %14 to i1
  br i1 %15, label %20, label %16

16:                                               ; preds = %4
  %17 = load i8, ptr @H5_libterm_g, align 1, !tbaa !9, !range !11, !noundef !12
  %18 = trunc i8 %17 to i1
  %19 = xor i1 %18, true
  br label %20

20:                                               ; preds = %16, %4
  %21 = phi i1 [ false, %4 ], [ %19, %16 ]
  %22 = xor i1 %21, true
  %23 = xor i1 %22, true
  %24 = zext i1 %23 to i32
  %25 = sext i32 %24 to i64
  %26 = call i64 @llvm.expect.i64(i64 %25, i64 0)
  %27 = icmp ne i64 %26, 0
  br i1 %27, label %28, label %29

28:                                               ; preds = %20
  store i8 1, ptr @H5HF_init_g, align 1, !tbaa !9
  br label %29

29:                                               ; preds = %28, %20
  %30 = load i8, ptr @H5HF_init_g, align 1, !tbaa !9, !range !11, !noundef !12
  %31 = trunc i8 %30 to i1
  br i1 %31, label %36, label %32

32:                                               ; preds = %29
  %33 = load i8, ptr @H5_libterm_g, align 1, !tbaa !9, !range !11, !noundef !12
  %34 = trunc i8 %33 to i1
  %35 = xor i1 %34, true
  br label %36

36:                                               ; preds = %32, %29
  %37 = phi i1 [ true, %29 ], [ %35, %32 ]
  %38 = xor i1 %37, true
  %39 = xor i1 %38, true
  %40 = zext i1 %39 to i32
  %41 = sext i32 %40 to i64
  %42 = call i64 @llvm.expect.i64(i64 %41, i64 1)
  %43 = icmp ne i64 %42, 0
  br i1 %43, label %44, label %204

44:                                               ; preds = %36
  %45 = load ptr, ptr %9, align 8, !tbaa !52
  %46 = load i8, ptr %45, align 1, !tbaa !54
  store i8 %46, ptr %10, align 1, !tbaa !54
  %47 = load i8, ptr %10, align 1, !tbaa !54
  %48 = zext i8 %47 to i32
  %49 = and i32 %48, 192
  %50 = icmp ne i32 %49, 0
  br i1 %50, label %51, label %70

51:                                               ; preds = %44
  br label %52

52:                                               ; preds = %51
  br label %53

53:                                               ; preds = %52
  br label %54

54:                                               ; preds = %53
  %55 = load i64, ptr @H5E_HEAP_g, align 8, !tbaa !7
  %56 = load i64, ptr @H5E_VERSION_g, align 8, !tbaa !7
  %57 = call i32 (ptr, ptr, i32, i64, i64, ptr, ...) @H5E_printf_stack(ptr noundef @.str, ptr noundef @__func__.H5HF_op, i32 noundef 650, i64 noundef %55, i64 noundef %56, ptr noundef @.str.14)
  br label %58

58:                                               ; preds = %54
  br label %59

59:                                               ; preds = %58
  store i8 1, ptr %12, align 1, !tbaa !9
  %60 = load i8, ptr %12, align 1, !tbaa !9, !range !11, !noundef !12
  %61 = trunc i8 %60 to i1
  %62 = zext i1 %61 to i8
  store i8 %62, ptr %12, align 1, !tbaa !9
  br label %63

63:                                               ; preds = %59
  br label %64

64:                                               ; preds = %63
  br label %65

65:                                               ; preds = %64
  store i32 -1, ptr %11, align 4, !tbaa !24
  br label %203

66:                                               ; No predecessors!
  br label %67

67:                                               ; preds = %66
  br label %68

68:                                               ; preds = %67
  br label %69

69:                                               ; preds = %68
  br label %70

70:                                               ; preds = %69, %44
  %71 = load ptr, ptr %5, align 8, !tbaa !17
  %72 = getelementptr inbounds nuw %struct.H5HF_t, ptr %71, i32 0, i32 1
  %73 = load ptr, ptr %72, align 8, !tbaa !23
  %74 = load ptr, ptr %5, align 8, !tbaa !17
  %75 = getelementptr inbounds nuw %struct.H5HF_t, ptr %74, i32 0, i32 0
  %76 = load ptr, ptr %75, align 8, !tbaa !21
  %77 = getelementptr inbounds nuw %struct.H5HF_hdr_t, ptr %76, i32 0, i32 28
  store ptr %73, ptr %77, align 8, !tbaa !26
  %78 = load i8, ptr %10, align 1, !tbaa !54
  %79 = zext i8 %78 to i32
  %80 = and i32 %79, 48
  %81 = icmp eq i32 %80, 0
  br i1 %81, label %82, label %111

82:                                               ; preds = %70
  %83 = load ptr, ptr %5, align 8, !tbaa !17
  %84 = getelementptr inbounds nuw %struct.H5HF_t, ptr %83, i32 0, i32 0
  %85 = load ptr, ptr %84, align 8, !tbaa !21
  %86 = load ptr, ptr %9, align 8, !tbaa !52
  %87 = load ptr, ptr %7, align 8, !tbaa !3
  %88 = load ptr, ptr %8, align 8, !tbaa !3
  %89 = call i32 @H5HF__man_op(ptr noundef %85, ptr noundef %86, ptr noundef %87, ptr noundef %88)
  %90 = icmp slt i32 %89, 0
  br i1 %90, label %91, label %110

91:                                               ; preds = %82
  br label %92

92:                                               ; preds = %91
  br label %93

93:                                               ; preds = %92
  br label %94

94:                                               ; preds = %93
  %95 = load i64, ptr @H5E_HEAP_g, align 8, !tbaa !7
  %96 = load i64, ptr @H5E_CANTOPERATE_g, align 8, !tbaa !7
  %97 = call i32 (ptr, ptr, i32, i64, i64, ptr, ...) @H5E_printf_stack(ptr noundef @.str, ptr noundef @__func__.H5HF_op, i32 noundef 659, i64 noundef %95, i64 noundef %96, ptr noundef @.str.27)
  br label %98

98:                                               ; preds = %94
  br label %99

99:                                               ; preds = %98
  store i8 1, ptr %12, align 1, !tbaa !9
  %100 = load i8, ptr %12, align 1, !tbaa !9, !range !11, !noundef !12
  %101 = trunc i8 %100 to i1
  %102 = zext i1 %101 to i8
  store i8 %102, ptr %12, align 1, !tbaa !9
  br label %103

103:                                              ; preds = %99
  br label %104

104:                                              ; preds = %103
  br label %105

105:                                              ; preds = %104
  store i32 -1, ptr %11, align 4, !tbaa !24
  br label %203

106:                                              ; No predecessors!
  br label %107

107:                                              ; preds = %106
  br label %108

108:                                              ; preds = %107
  br label %109

109:                                              ; preds = %108
  br label %110

110:                                              ; preds = %109, %82
  br label %202

111:                                              ; preds = %70
  %112 = load i8, ptr %10, align 1, !tbaa !54
  %113 = zext i8 %112 to i32
  %114 = and i32 %113, 48
  %115 = icmp eq i32 %114, 16
  br i1 %115, label %116, label %145

116:                                              ; preds = %111
  %117 = load ptr, ptr %5, align 8, !tbaa !17
  %118 = getelementptr inbounds nuw %struct.H5HF_t, ptr %117, i32 0, i32 0
  %119 = load ptr, ptr %118, align 8, !tbaa !21
  %120 = load ptr, ptr %9, align 8, !tbaa !52
  %121 = load ptr, ptr %7, align 8, !tbaa !3
  %122 = load ptr, ptr %8, align 8, !tbaa !3
  %123 = call i32 @H5HF__huge_op(ptr noundef %119, ptr noundef %120, ptr noundef %121, ptr noundef %122)
  %124 = icmp slt i32 %123, 0
  br i1 %124, label %125, label %144

125:                                              ; preds = %116
  br label %126

126:                                              ; preds = %125
  br label %127

127:                                              ; preds = %126
  br label %128

128:                                              ; preds = %127
  %129 = load i64, ptr @H5E_HEAP_g, align 8, !tbaa !7
  %130 = load i64, ptr @H5E_CANTOPERATE_g, align 8, !tbaa !7
  %131 = call i32 (ptr, ptr, i32, i64, i64, ptr, ...) @H5E_printf_stack(ptr noundef @.str, ptr noundef @__func__.H5HF_op, i32 noundef 664, i64 noundef %129, i64 noundef %130, ptr noundef @.str.28)
  br label %132

132:                                              ; preds = %128
  br label %133

133:                                              ; preds = %132
  store i8 1, ptr %12, align 1, !tbaa !9
  %134 = load i8, ptr %12, align 1, !tbaa !9, !range !11, !noundef !12
  %135 = trunc i8 %134 to i1
  %136 = zext i1 %135 to i8
  store i8 %136, ptr %12, align 1, !tbaa !9
  br label %137

137:                                              ; preds = %133
  br label %138

138:                                              ; preds = %137
  br label %139

139:                                              ; preds = %138
  store i32 -1, ptr %11, align 4, !tbaa !24
  br label %203

140:                                              ; No predecessors!
  br label %141

141:                                              ; preds = %140
  br label %142

142:                                              ; preds = %141
  br label %143

143:                                              ; preds = %142
  br label %144

144:                                              ; preds = %143, %116
  br label %201

145:                                              ; preds = %111
  %146 = load i8, ptr %10, align 1, !tbaa !54
  %147 = zext i8 %146 to i32
  %148 = and i32 %147, 48
  %149 = icmp eq i32 %148, 32
  br i1 %149, label %150, label %179

150:                                              ; preds = %145
  %151 = load ptr, ptr %5, align 8, !tbaa !17
  %152 = getelementptr inbounds nuw %struct.H5HF_t, ptr %151, i32 0, i32 0
  %153 = load ptr, ptr %152, align 8, !tbaa !21
  %154 = load ptr, ptr %9, align 8, !tbaa !52
  %155 = load ptr, ptr %7, align 8, !tbaa !3
  %156 = load ptr, ptr %8, align 8, !tbaa !3
  %157 = call i32 @H5HF__tiny_op(ptr noundef %153, ptr noundef %154, ptr noundef %155, ptr noundef %156)
  %158 = icmp slt i32 %157, 0
  br i1 %158, label %159, label %178

159:                                              ; preds = %150
  br label %160

160:                                              ; preds = %159
  br label %161

161:                                              ; preds = %160
  br label %162

162:                                              ; preds = %161
  %163 = load i64, ptr @H5E_HEAP_g, align 8, !tbaa !7
  %164 = load i64, ptr @H5E_CANTOPERATE_g, align 8, !tbaa !7
  %165 = call i32 (ptr, ptr, i32, i64, i64, ptr, ...) @H5E_printf_stack(ptr noundef @.str, ptr noundef @__func__.H5HF_op, i32 noundef 669, i64 noundef %163, i64 noundef %164, ptr noundef @.str.29)
  br label %166

166:                                              ; preds = %162
  br label %167

167:                                              ; preds = %166
  store i8 1, ptr %12, align 1, !tbaa !9
  %168 = load i8, ptr %12, align 1, !tbaa !9, !range !11, !noundef !12
  %169 = trunc i8 %168 to i1
  %170 = zext i1 %169 to i8
  store i8 %170, ptr %12, align 1, !tbaa !9
  br label %171

171:                                              ; preds = %167
  br label %172

172:                                              ; preds = %171
  br label %173

173:                                              ; preds = %172
  store i32 -1, ptr %11, align 4, !tbaa !24
  br label %203

174:                                              ; No predecessors!
  br label %175

175:                                              ; preds = %174
  br label %176

176:                                              ; preds = %175
  br label %177

177:                                              ; preds = %176
  br label %178

178:                                              ; preds = %177, %150
  br label %200

179:                                              ; preds = %145
  %180 = load ptr, ptr @stderr, align 8, !tbaa !55
  %181 = call i32 (ptr, ptr, ...) @fprintf(ptr noundef %180, ptr noundef @.str.18, ptr noundef @__func__.H5HF_op) #6
  br label %182

182:                                              ; preds = %179
  br label %183

183:                                              ; preds = %182
  br label %184

184:                                              ; preds = %183
  %185 = load i64, ptr @H5E_HEAP_g, align 8, !tbaa !7
  %186 = load i64, ptr @H5E_UNSUPPORTED_g, align 8, !tbaa !7
  %187 = call i32 (ptr, ptr, i32, i64, i64, ptr, ...) @H5E_printf_stack(ptr noundef @.str, ptr noundef @__func__.H5HF_op, i32 noundef 673, i64 noundef %185, i64 noundef %186, ptr noundef @.str.19)
  br label %188

188:                                              ; preds = %184
  br label %189

189:                                              ; preds = %188
  store i8 1, ptr %12, align 1, !tbaa !9
  %190 = load i8, ptr %12, align 1, !tbaa !9, !range !11, !noundef !12
  %191 = trunc i8 %190 to i1
  %192 = zext i1 %191 to i8
  store i8 %192, ptr %12, align 1, !tbaa !9
  br label %193

193:                                              ; preds = %189
  br label %194

194:                                              ; preds = %193
  br label %195

195:                                              ; preds = %194
  store i32 -1, ptr %11, align 4, !tbaa !24
  br label %203

196:                                              ; No predecessors!
  br label %197

197:                                              ; preds = %196
  br label %198

198:                                              ; preds = %197
  br label %199

199:                                              ; preds = %198
  br label %200

200:                                              ; preds = %199, %178
  br label %201

201:                                              ; preds = %200, %144
  br label %202

202:                                              ; preds = %201, %110
  br label %203

203:                                              ; preds = %202, %195, %173, %139, %105, %65
  br label %204

204:                                              ; preds = %203, %36
  %205 = load i32, ptr %11, align 4, !tbaa !24
  call void @llvm.lifetime.end.p0(i64 1, ptr %12) #6
  call void @llvm.lifetime.end.p0(i64 4, ptr %11) #6
  call void @llvm.lifetime.end.p0(i64 1, ptr %10) #6
  call void @llvm.lifetime.end.p0(i64 8, ptr %9) #6
  ret i32 %205
}