; Function Attrs: nounwind uwtable
define range(i32 -1, 1) i32 @H5HF_op(ptr noundef readonly captures(none) %0, ptr noundef %1, ptr noundef %2, ptr noundef %3) local_unnamed_addr #2 {
  %5 = load i8, ptr @H5HF_init_g, align 1, !tbaa !3, !range !7, !noundef !8
  %6 = trunc nuw i8 %5 to i1
  %7 = load i8, ptr @H5_libterm_g, align 1, !range !7
  %8 = trunc nuw i8 %7 to i1
  %9 = select i1 %6, i1 true, i1 %8
  br i1 %9, label %10, label %.thread, !prof !9

.thread:                                          ; preds = %4
  store i8 1, ptr @H5HF_init_g, align 1, !tbaa !3
  br label %13

10:                                               ; preds = %4
  %11 = xor i1 %8, true
  %12 = select i1 %6, i1 true, i1 %11
  br i1 %12, label %13, label %52, !prof !10

13:                                               ; preds = %.thread, %10
  %14 = load i8, ptr %1, align 1, !tbaa !45
  %.not = icmp ult i8 %14, 64
  br i1 %.not, label %19, label %15

15:                                               ; preds = %13
  %16 = load i64, ptr @H5E_HEAP_g, align 8, !tbaa !11
  %17 = load i64, ptr @H5E_VERSION_g, align 8, !tbaa !11
  %18 = tail call i32 (ptr, ptr, i32, i64, i64, ptr, ...) @H5E_printf_stack(ptr noundef nonnull @.str, ptr noundef nonnull @__func__.H5HF_op, i32 noundef 650, i64 noundef %16, i64 noundef %17, ptr noundef nonnull @.str.14) #5
  br label %52

19:                                               ; preds = %13
  %20 = getelementptr inbounds nuw i8, ptr %0, i64 8
  %21 = load ptr, ptr %20, align 8, !tbaa !18
  %22 = load ptr, ptr %0, align 8, !tbaa !13
  %23 = getelementptr inbounds nuw i8, ptr %22, i64 600
  store ptr %21, ptr %23, align 8, !tbaa !19
  %24 = lshr i8 %14, 4
  switch i8 %24, label %.unreachabledefault [
    i8 0, label %25
    i8 1, label %32
    i8 2, label %39
    i8 3, label %46
  ]

25:                                               ; preds = %19
  %26 = tail call i32 @H5HF__man_op(ptr noundef nonnull %22, ptr noundef nonnull %1, ptr noundef %2, ptr noundef %3) #5
  %27 = icmp slt i32 %26, 0
  br i1 %27, label %28, label %52

28:                                               ; preds = %25
  %29 = load i64, ptr @H5E_HEAP_g, align 8, !tbaa !11
  %30 = load i64, ptr @H5E_CANTOPERATE_g, align 8, !tbaa !11
  %31 = tail call i32 (ptr, ptr, i32, i64, i64, ptr, ...) @H5E_printf_stack(ptr noundef nonnull @.str, ptr noundef nonnull @__func__.H5HF_op, i32 noundef 659, i64 noundef %29, i64 noundef %30, ptr noundef nonnull @.str.27) #5
  br label %52

32:                                               ; preds = %19
  %33 = tail call i32 @H5HF__huge_op(ptr noundef nonnull %22, ptr noundef nonnull %1, ptr noundef %2, ptr noundef %3) #5
  %34 = icmp slt i32 %33, 0
  br i1 %34, label %35, label %52

35:                                               ; preds = %32
  %36 = load i64, ptr @H5E_HEAP_g, align 8, !tbaa !11
  %37 = load i64, ptr @H5E_CANTOPERATE_g, align 8, !tbaa !11
  %38 = tail call i32 (ptr, ptr, i32, i64, i64, ptr, ...) @H5E_printf_stack(ptr noundef nonnull @.str, ptr noundef nonnull @__func__.H5HF_op, i32 noundef 664, i64 noundef %36, i64 noundef %37, ptr noundef nonnull @.str.28) #5
  br label %52

39:                                               ; preds = %19
  %40 = tail call i32 @H5HF__tiny_op(ptr noundef nonnull %22, ptr noundef nonnull %1, ptr noundef %2, ptr noundef %3) #5
  %41 = icmp slt i32 %40, 0
  br i1 %41, label %42, label %52

42:                                               ; preds = %39
  %43 = load i64, ptr @H5E_HEAP_g, align 8, !tbaa !11
  %44 = load i64, ptr @H5E_CANTOPERATE_g, align 8, !tbaa !11
  %45 = tail call i32 (ptr, ptr, i32, i64, i64, ptr, ...) @H5E_printf_stack(ptr noundef nonnull @.str, ptr noundef nonnull @__func__.H5HF_op, i32 noundef 669, i64 noundef %43, i64 noundef %44, ptr noundef nonnull @.str.29) #5
  br label %52

.unreachabledefault:                              ; preds = %19
  unreachable

46:                                               ; preds = %19
  %47 = load ptr, ptr @stderr, align 8, !tbaa !46
  %48 = tail call i32 (ptr, ptr, ...) @fprintf(ptr noundef %47, ptr noundef nonnull @.str.18, ptr noundef nonnull @__func__.H5HF_op) #6
  %49 = load i64, ptr @H5E_HEAP_g, align 8, !tbaa !11
  %50 = load i64, ptr @H5E_UNSUPPORTED_g, align 8, !tbaa !11
  %51 = tail call i32 (ptr, ptr, i32, i64, i64, ptr, ...) @H5E_printf_stack(ptr noundef nonnull @.str, ptr noundef nonnull @__func__.H5HF_op, i32 noundef 673, i64 noundef %49, i64 noundef %50, ptr noundef nonnull @.str.19) #5
  br label %52

52:                                               ; preds = %15, %28, %35, %42, %46, %32, %39, %25, %10
  %.0 = phi i32 [ -1, %15 ], [ -1, %28 ], [ 0, %25 ], [ -1, %35 ], [ 0, %32 ], [ -1, %42 ], [ 0, %39 ], [ -1, %46 ], [ 0, %10 ]
  ret i32 %.0
}